; ModuleID = 'source-C-CXX/48/1388.cpp'
source_filename = "source-C-CXX/48/1388.cpp"
target datalayout = "e-m:e-p270:32:32-p271:32:32-p272:64:64-i64:64-f80:128-n8:16:32:64-S128"
target triple = "x86_64-pc-linux-gnu"

%"class.std::ios_base::Init" = type { i8 }
%"class.std::basic_ostream" = type { i32 (...)**, %"class.std::basic_ios" }
%"class.std::basic_ios" = type { %"class.std::ios_base", %"class.std::basic_ostream"*, i8, i8, %"class.std::basic_streambuf"*, %"class.std::ctype"*, %"class.std::num_put"*, %"class.std::num_get"* }
%"class.std::ios_base" = type { i32 (...)**, i64, i64, i32, i32, i32, %"struct.std::ios_base::_Callback_list"*, %"struct.std::ios_base::_Words", [8 x %"struct.std::ios_base::_Words"], i32, %"struct.std::ios_base::_Words"*, %"class.std::locale" }
%"struct.std::ios_base::_Callback_list" = type { %"struct.std::ios_base::_Callback_list"*, void (i32, %"class.std::ios_base"*, i32)*, i32, i32 }
%"struct.std::ios_base::_Words" = type { i8*, i64 }
%"class.std::locale" = type { %"class.std::locale::_Impl"* }
%"class.std::locale::_Impl" = type { i32, %"class.std::locale::facet"**, i64, %"class.std::locale::facet"**, i8** }
%"class.std::locale::facet" = type <{ i32 (...)**, i32, [4 x i8] }>
%"class.std::basic_streambuf" = type { i32 (...)**, i8*, i8*, i8*, i8*, i8*, i8*, %"class.std::locale" }
%"class.std::ctype" = type <{ %"class.std::locale::facet.base", [4 x i8], %struct.__locale_struct*, i8, [7 x i8], i32*, i32*, i16*, i8, [256 x i8], [256 x i8], i8, [6 x i8] }>
%"class.std::locale::facet.base" = type <{ i32 (...)**, i32 }>
%struct.__locale_struct = type { [13 x %struct.__locale_data*], i16*, i32*, i32*, [13 x i8*] }
%struct.__locale_data = type opaque
%"class.std::num_put" = type { %"class.std::locale::facet.base", [4 x i8] }
%"class.std::num_get" = type { %"class.std::locale::facet.base", [4 x i8] }
%"class.std::basic_istream" = type { i32 (...)**, i64, %"class.std::basic_ios" }

@_ZStL8__ioinit = internal global %"class.std::ios_base::Init" zeroinitializer, align 1
@__dso_handle = external hidden global i8
@a = dso_local global [1000 x i8] zeroinitializer, align 16
@_ZSt4cout = external global %"class.std::basic_ostream", align 8
@_ZSt3cin = external global %"class.std::basic_istream", align 8
@llvm.global_ctors = appending global [1 x { i32, void ()*, i8* }] [{ i32, void ()*, i8* } { i32 65535, void ()* @_GLOBAL__sub_I_1388.cpp, i8* null }]

declare void @_ZNSt8ios_base4InitC1Ev(%"class.std::ios_base::Init"* nonnull align 1 dereferenceable(1)) unnamed_addr #0

; Function Attrs: nounwind
declare void @_ZNSt8ios_base4InitD1Ev(%"class.std::ios_base::Init"* nonnull align 1 dereferenceable(1)) unnamed_addr #1

; Function Attrs: nofree nounwind
declare i32 @__cxa_atexit(void (i8*)*, i8*, i8*) local_unnamed_addr #2

; Function Attrs: mustprogress sspstrong uwtable
define dso_local void @_Z5judgeii(i32 %0, i32 %1) local_unnamed_addr #3 {
  %3 = alloca i8, align 1
  %4 = add nsw i32 %1, %0
  %5 = icmp sgt i32 %0, %1
  br i1 %5, label %27, label %6

6:                                                ; preds = %2
  %7 = sext i32 %0 to i64
  %8 = add i32 %1, 1
  br label %17

9:                                                ; preds = %17
  %10 = add nsw i64 %18, 1
  %11 = trunc i64 %10 to i32
  %12 = icmp eq i32 %8, %11
  br i1 %12, label %13, label %17, !llvm.loop !5

13:                                               ; preds = %9
  br i1 %5, label %27, label %14

14:                                               ; preds = %13
  %15 = sext i32 %0 to i64
  %16 = add i32 %1, 1
  br label %55

17:                                               ; preds = %6, %9
  %18 = phi i64 [ %7, %6 ], [ %10, %9 ]
  %19 = getelementptr inbounds [1000 x i8], [1000 x i8]* @a, i64 0, i64 %18
  %20 = load i8, i8* %19, align 1, !tbaa !7
  %21 = trunc i64 %18 to i32
  %22 = sub i32 %4, %21
  %23 = sext i32 %22 to i64
  %24 = getelementptr inbounds [1000 x i8], [1000 x i8]* @a, i64 0, i64 %23
  %25 = load i8, i8* %24, align 1, !tbaa !7
  %26 = icmp eq i8 %20, %25
  br i1 %26, label %9, label %63

27:                                               ; preds = %55, %2, %13
  %28 = load i8*, i8** bitcast (%"class.std::basic_ostream"* @_ZSt4cout to i8**), align 8, !tbaa !10
  %29 = getelementptr i8, i8* %28, i64 -24
  %30 = bitcast i8* %29 to i64*
  %31 = load i64, i64* %30, align 8
  %32 = add nsw i64 %31, 240
  %33 = getelementptr inbounds i8, i8* bitcast (%"class.std::basic_ostream"* @_ZSt4cout to i8*), i64 %32
  %34 = bitcast i8* %33 to %"class.std::ctype"**
  %35 = load %"class.std::ctype"*, %"class.std::ctype"** %34, align 8, !tbaa !12
  %36 = icmp eq %"class.std::ctype"* %35, null
  br i1 %36, label %37, label %38

37:                                               ; preds = %27
  call void @_ZSt16__throw_bad_castv() #9
  unreachable

38:                                               ; preds = %27
  %39 = getelementptr inbounds %"class.std::ctype", %"class.std::ctype"* %35, i64 0, i32 8
  %40 = load i8, i8* %39, align 8, !tbaa !16
  %41 = icmp eq i8 %40, 0
  br i1 %41, label %45, label %42

42:                                               ; preds = %38
  %43 = getelementptr inbounds %"class.std::ctype", %"class.std::ctype"* %35, i64 0, i32 9, i64 10
  %44 = load i8, i8* %43, align 1, !tbaa !7
  br label %51

45:                                               ; preds = %38
  call void @_ZNKSt5ctypeIcE13_M_widen_initEv(%"class.std::ctype"* nonnull align 8 dereferenceable(570) %35)
  %46 = bitcast %"class.std::ctype"* %35 to i8 (%"class.std::ctype"*, i8)***
  %47 = load i8 (%"class.std::ctype"*, i8)**, i8 (%"class.std::ctype"*, i8)*** %46, align 8, !tbaa !10
  %48 = getelementptr inbounds i8 (%"class.std::ctype"*, i8)*, i8 (%"class.std::ctype"*, i8)** %47, i64 6
  %49 = load i8 (%"class.std::ctype"*, i8)*, i8 (%"class.std::ctype"*, i8)** %48, align 8
  %50 = call signext i8 %49(%"class.std::ctype"* nonnull align 8 dereferenceable(570) %35, i8 signext 10)
  br label %51

51:                                               ; preds = %42, %45
  %52 = phi i8 [ %44, %42 ], [ %50, %45 ]
  %53 = call nonnull align 8 dereferenceable(8) %"class.std::basic_ostream"* @_ZNSo3putEc(%"class.std::basic_ostream"* nonnull align 8 dereferenceable(8) @_ZSt4cout, i8 signext %52)
  %54 = call nonnull align 8 dereferenceable(8) %"class.std::basic_ostream"* @_ZNSo5flushEv(%"class.std::basic_ostream"* nonnull align 8 dereferenceable(8) %53)
  br label %63

55:                                               ; preds = %14, %55
  %56 = phi i64 [ %15, %14 ], [ %60, %55 ]
  %57 = getelementptr inbounds [1000 x i8], [1000 x i8]* @a, i64 0, i64 %56
  %58 = load i8, i8* %57, align 1, !tbaa !7
  call void @llvm.lifetime.start.p0i8(i64 1, i8* nonnull %3)
  store i8 %58, i8* %3, align 1, !tbaa !7
  %59 = call nonnull align 8 dereferenceable(8) %"class.std::basic_ostream"* @_ZSt16__ostream_insertIcSt11char_traitsIcEERSt13basic_ostreamIT_T0_ES6_PKS3_l(%"class.std::basic_ostream"* nonnull align 8 dereferenceable(8) @_ZSt4cout, i8* nonnull %3, i64 1)
  call void @llvm.lifetime.end.p0i8(i64 1, i8* nonnull %3)
  %60 = add nsw i64 %56, 1
  %61 = trunc i64 %60 to i32
  %62 = icmp eq i32 %16, %61
  br i1 %62, label %27, label %55, !llvm.loop !18

63:                                               ; preds = %17, %51
  ret void
}

; Function Attrs: mustprogress norecurse sspstrong uwtable
define dso_local i32 @main() local_unnamed_addr #4 {
  %1 = alloca i8, align 1
  %2 = load i8*, i8** bitcast (%"class.std::basic_istream"* @_ZSt3cin to i8**), align 8, !tbaa !10
  %3 = getelementptr i8, i8* %2, i64 -24
  %4 = bitcast i8* %3 to i64*
  %5 = load i64, i64* %4, align 8
  %6 = add nsw i64 %5, 240
  %7 = getelementptr inbounds i8, i8* bitcast (%"class.std::basic_istream"* @_ZSt3cin to i8*), i64 %6
  %8 = bitcast i8* %7 to %"class.std::ctype"**
  %9 = load %"class.std::ctype"*, %"class.std::ctype"** %8, align 8, !tbaa !12
  %10 = icmp eq %"class.std::ctype"* %9, null
  br i1 %10, label %11, label %12

11:                                               ; preds = %0
  tail call void @_ZSt16__throw_bad_castv() #9
  unreachable

12:                                               ; preds = %0
  %13 = getelementptr inbounds %"class.std::ctype", %"class.std::ctype"* %9, i64 0, i32 8
  %14 = load i8, i8* %13, align 8, !tbaa !16
  %15 = icmp eq i8 %14, 0
  br i1 %15, label %19, label %16

16:                                               ; preds = %12
  %17 = getelementptr inbounds %"class.std::ctype", %"class.std::ctype"* %9, i64 0, i32 9, i64 10
  %18 = load i8, i8* %17, align 1, !tbaa !7
  br label %25

19:                                               ; preds = %12
  tail call void @_ZNKSt5ctypeIcE13_M_widen_initEv(%"class.std::ctype"* nonnull align 8 dereferenceable(570) %9)
  %20 = bitcast %"class.std::ctype"* %9 to i8 (%"class.std::ctype"*, i8)***
  %21 = load i8 (%"class.std::ctype"*, i8)**, i8 (%"class.std::ctype"*, i8)*** %20, align 8, !tbaa !10
  %22 = getelementptr inbounds i8 (%"class.std::ctype"*, i8)*, i8 (%"class.std::ctype"*, i8)** %21, i64 6
  %23 = load i8 (%"class.std::ctype"*, i8)*, i8 (%"class.std::ctype"*, i8)** %22, align 8
  %24 = tail call signext i8 %23(%"class.std::ctype"* nonnull align 8 dereferenceable(570) %9, i8 signext 10)
  br label %25

25:                                               ; preds = %16, %19
  %26 = phi i8 [ %18, %16 ], [ %24, %19 ]
  %27 = tail call nonnull align 8 dereferenceable(16) %"class.std::basic_istream"* @_ZNSi7getlineEPclc(%"class.std::basic_istream"* nonnull align 8 dereferenceable(16) @_ZSt3cin, i8* getelementptr inbounds ([1000 x i8], [1000 x i8]* @a, i64 0, i64 0), i64 1000, i8 signext %26)
  %28 = tail call i64 @strlen(i8* noundef nonnull dereferenceable(1) getelementptr inbounds ([1000 x i8], [1000 x i8]* @a, i64 0, i64 0)) #10
  %29 = trunc i64 %28 to i32
  %30 = icmp sgt i32 %29, 1
  br i1 %30, label %31, label %101

31:                                               ; preds = %25
  %32 = add i64 %28, 4294967295
  %33 = and i64 %28, 4294967295
  %34 = and i64 %32, 4294967295
  br label %35

35:                                               ; preds = %31, %98
  %36 = phi i64 [ 1, %31 ], [ %99, %98 ]
  br label %37

37:                                               ; preds = %35, %94
  %38 = phi i64 [ 0, %35 ], [ %95, %94 ]
  %39 = phi i32 [ 0, %35 ], [ %96, %94 ]
  %40 = add nuw nsw i64 %38, %36
  %41 = trunc i64 %40 to i32
  %42 = icmp slt i32 %41, %29
  br i1 %42, label %43, label %94

43:                                               ; preds = %37
  %44 = zext i32 %39 to i64
  %45 = add nuw nsw i64 %36, %44
  %46 = add nuw nsw i64 %45, %38
  br label %47

47:                                               ; preds = %57, %43
  %48 = phi i64 [ %38, %43 ], [ %58, %57 ]
  %49 = getelementptr inbounds [1000 x i8], [1000 x i8]* @a, i64 0, i64 %48
  %50 = load i8, i8* %49, align 1, !tbaa !7
  %51 = sub nsw i64 %46, %48
  %52 = shl i64 %51, 32
  %53 = ashr exact i64 %52, 32
  %54 = getelementptr inbounds [1000 x i8], [1000 x i8]* @a, i64 0, i64 %53
  %55 = load i8, i8* %54, align 1, !tbaa !7
  %56 = icmp eq i8 %50, %55
  br i1 %56, label %57, label %94

57:                                               ; preds = %47
  %58 = add nuw nsw i64 %48, 1
  %59 = icmp eq i64 %48, %40
  br i1 %59, label %60, label %47, !llvm.loop !5

60:                                               ; preds = %57, %60
  %61 = phi i64 [ %65, %60 ], [ %38, %57 ]
  %62 = getelementptr inbounds [1000 x i8], [1000 x i8]* @a, i64 0, i64 %61
  %63 = load i8, i8* %62, align 1, !tbaa !7
  call void @llvm.lifetime.start.p0i8(i64 1, i8* nonnull %1)
  store i8 %63, i8* %1, align 1, !tbaa !7
  %64 = call nonnull align 8 dereferenceable(8) %"class.std::basic_ostream"* @_ZSt16__ostream_insertIcSt11char_traitsIcEERSt13basic_ostreamIT_T0_ES6_PKS3_l(%"class.std::basic_ostream"* nonnull align 8 dereferenceable(8) @_ZSt4cout, i8* nonnull %1, i64 1)
  call void @llvm.lifetime.end.p0i8(i64 1, i8* nonnull %1)
  %65 = add nuw nsw i64 %61, 1
  %66 = icmp eq i64 %61, %40
  br i1 %66, label %67, label %60, !llvm.loop !18

67:                                               ; preds = %60
  %68 = load i8*, i8** bitcast (%"class.std::basic_ostream"* @_ZSt4cout to i8**), align 8, !tbaa !10
  %69 = getelementptr i8, i8* %68, i64 -24
  %70 = bitcast i8* %69 to i64*
  %71 = load i64, i64* %70, align 8
  %72 = add nsw i64 %71, 240
  %73 = getelementptr inbounds i8, i8* bitcast (%"class.std::basic_ostream"* @_ZSt4cout to i8*), i64 %72
  %74 = bitcast i8* %73 to %"class.std::ctype"**
  %75 = load %"class.std::ctype"*, %"class.std::ctype"** %74, align 8, !tbaa !12
  %76 = icmp eq %"class.std::ctype"* %75, null
  br i1 %76, label %102, label %77

77:                                               ; preds = %67
  %78 = getelementptr inbounds %"class.std::ctype", %"class.std::ctype"* %75, i64 0, i32 8
  %79 = load i8, i8* %78, align 8, !tbaa !16
  %80 = icmp eq i8 %79, 0
  br i1 %80, label %84, label %81

81:                                               ; preds = %77
  %82 = getelementptr inbounds %"class.std::ctype", %"class.std::ctype"* %75, i64 0, i32 9, i64 10
  %83 = load i8, i8* %82, align 1, !tbaa !7
  br label %90

84:                                               ; preds = %77
  call void @_ZNKSt5ctypeIcE13_M_widen_initEv(%"class.std::ctype"* nonnull align 8 dereferenceable(570) %75)
  %85 = bitcast %"class.std::ctype"* %75 to i8 (%"class.std::ctype"*, i8)***
  %86 = load i8 (%"class.std::ctype"*, i8)**, i8 (%"class.std::ctype"*, i8)*** %85, align 8, !tbaa !10
  %87 = getelementptr inbounds i8 (%"class.std::ctype"*, i8)*, i8 (%"class.std::ctype"*, i8)** %86, i64 6
  %88 = load i8 (%"class.std::ctype"*, i8)*, i8 (%"class.std::ctype"*, i8)** %87, align 8
  %89 = call signext i8 %88(%"class.std::ctype"* nonnull align 8 dereferenceable(570) %75, i8 signext 10)
  br label %90

90:                                               ; preds = %84, %81
  %91 = phi i8 [ %83, %81 ], [ %89, %84 ]
  %92 = call nonnull align 8 dereferenceable(8) %"class.std::basic_ostream"* @_ZNSo3putEc(%"class.std::basic_ostream"* nonnull align 8 dereferenceable(8) @_ZSt4cout, i8 signext %91)
  %93 = call nonnull align 8 dereferenceable(8) %"class.std::basic_ostream"* @_ZNSo5flushEv(%"class.std::basic_ostream"* nonnull align 8 dereferenceable(8) %92)
  br label %94

94:                                               ; preds = %47, %90, %37
  %95 = add nuw nsw i64 %38, 1
  %96 = add nuw nsw i32 %39, 1
  %97 = icmp eq i64 %95, %34
  br i1 %97, label %98, label %37, !llvm.loop !19

98:                                               ; preds = %94
  %99 = add nuw nsw i64 %36, 1
  %100 = icmp eq i64 %99, %33
  br i1 %100, label %101, label %35, !llvm.loop !20

101:                                              ; preds = %98, %25
  ret i32 0

102:                                              ; preds = %67
  call void @_ZSt16__throw_bad_castv() #9
  unreachable
}

; Function Attrs: argmemonly mustprogress nofree nounwind readonly willreturn
declare i64 @strlen(i8* nocapture) local_unnamed_addr #5

declare nonnull align 8 dereferenceable(8) %"class.std::basic_ostream"* @_ZSt16__ostream_insertIcSt11char_traitsIcEERSt13basic_ostreamIT_T0_ES6_PKS3_l(%"class.std::basic_ostream"* nonnull align 8 dereferenceable(8), i8*, i64) local_unnamed_addr #0

declare nonnull align 8 dereferenceable(8) %"class.std::basic_ostream"* @_ZNSo3putEc(%"class.std::basic_ostream"* nonnull align 8 dereferenceable(8), i8 signext) local_unnamed_addr #0

declare nonnull align 8 dereferenceable(8) %"class.std::basic_ostream"* @_ZNSo5flushEv(%"class.std::basic_ostream"* nonnull align 8 dereferenceable(8)) local_unnamed_addr #0

; Function Attrs: noreturn
declare void @_ZSt16__throw_bad_castv() local_unnamed_addr #6

declare void @_ZNKSt5ctypeIcE13_M_widen_initEv(%"class.std::ctype"* nonnull align 8 dereferenceable(570)) local_unnamed_addr #0

declare nonnull align 8 dereferenceable(16) %"class.std::basic_istream"* @_ZNSi7getlineEPclc(%"class.std::basic_istream"* nonnull align 8 dereferenceable(16), i8*, i64, i8 signext) local_unnamed_addr #0

; Function Attrs: sspstrong uwtable
define internal void @_GLOBAL__sub_I_1388.cpp() #7 section ".text.startup" {
  tail call void @_ZNSt8ios_base4InitC1Ev(%"class.std::ios_base::Init"* nonnull align 1 dereferenceable(1) @_ZStL8__ioinit)
  %1 = tail call i32 @__cxa_atexit(void (i8*)* bitcast (void (%"class.std::ios_base::Init"*)* @_ZNSt8ios_base4InitD1Ev to void (i8*)*), i8* getelementptr inbounds (%"class.std::ios_base::Init", %"class.std::ios_base::Init"* @_ZStL8__ioinit, i64 0, i32 0), i8* nonnull @__dso_handle) #11
  ret void
}

; Function Attrs: argmemonly nofree nosync nounwind willreturn
declare void @llvm.lifetime.start.p0i8(i64 immarg, i8* nocapture) #8

; Function Attrs: argmemonly nofree nosync nounwind willreturn
declare void @llvm.lifetime.end.p0i8(i64 immarg, i8* nocapture) #8


!llvm.module.flags = !{!0, !1, !2, !3}
!llvm.ident = !{!4}

!0 = !{i32 1, !"wchar_size", i32 4}
!1 = !{i32 7, !"PIC Level", i32 2}
!2 = !{i32 7, !"PIE Level", i32 2}
!3 = !{i32 7, !"uwtable", i32 1}
!4 = !{!"clang version 13.0.0"}
!5 = distinct !{!5, !6}
!6 = !{!"llvm.loop.mustprogress"}
!7 = !{!8, !8, i64 0}
!8 = !{!"omnipotent char", !9, i64 0}
!9 = !{!"Simple C++ TBAA"}
!10 = !{!11, !11, i64 0}
!11 = !{!"vtable pointer", !9, i64 0}
!12 = !{!13, !14, i64 240}
!13 = !{!"_ZTSSt9basic_iosIcSt11char_traitsIcEE", !14, i64 216, !8, i64 224, !15, i64 225, !14, i64 232, !14, i64 240, !14, i64 248, !14, i64 256}
!14 = !{!"any pointer", !8, i64 0}
!15 = !{!"bool", !8, i64 0}
!16 = !{!17, !8, i64 56}
!17 = !{!"_ZTSSt5ctypeIcE", !14, i64 16, !15, i64 24, !14, i64 32, !14, i64 40, !14, i64 48, !8, i64 56, !8, i64 57, !8, i64 313, !8, i64 569}
!18 = distinct !{!18, !6}
!19 = distinct !{!19, !6}
!20 = distinct !{!20, !6}
